target datalayout = "e-m:e-p270:32:32-p271:32:32-p272:64:64-i64:64-i128:128-f80:128-n8:16:32:64-S128"
target triple = "x86_64-pc-linux-gnu"

%struct.stat = type { i64, i64, i64, i32, i32, i32, i32, i64, i64, i64, i64, %struct.timespec, %struct.timespec, %struct.timespec, [3 x i64] }
%struct.timespec = type { i64, i64 }

@progname = internal global ptr null, align 8
@pg_data = internal global ptr null, align 8
@version_file = internal global [1024 x i8] zeroinitializer, align 16
@pid_file = internal global [1024 x i8] zeroinitializer, align 16
@.str.99 = private unnamed_addr constant [2 x i8] c"r\00", align 1
@.str.115 = private unnamed_addr constant [35 x i8] c"%s: directory \22%s\22 does not exist\0A\00", align 1
@.str.116 = private unnamed_addr constant [41 x i8] c"%s: could not access directory \22%s\22: %m\0A\00", align 1
@.str.117 = private unnamed_addr constant [56 x i8] c"%s: directory \22%s\22 is not a database cluster directory\0A\00", align 1
@.str.118 = private unnamed_addr constant [38 x i8] c"%s: could not open PID file \22%s\22: %m\0A\00", align 1
@.str.119 = private unnamed_addr constant [3 x i8] c"%d\00", align 1
@.str.120 = private unnamed_addr constant [32 x i8] c"%s: the PID file \22%s\22 is empty\0A\00", align 1
@.str.121 = private unnamed_addr constant [35 x i8] c"%s: invalid data in PID file \22%s\22\0A\00", align 1

; Function Attrs: nounwind uwtable
define internal i32 @get_pgpid(i1 noundef zeroext %0) #0 {
  %2 = alloca i32, align 4
  %3 = alloca i8, align 1
  %4 = alloca ptr, align 8
  %5 = alloca i32, align 4
  %6 = alloca %struct.stat, align 8
  %7 = alloca i32, align 4
  %8 = zext i1 %0 to i8
  store i8 %8, ptr %3, align 1
  call void @llvm.lifetime.start.p0(i64 8, ptr %4) #10
  call void @llvm.lifetime.start.p0(i64 4, ptr %5) #10
  call void @llvm.lifetime.start.p0(i64 144, ptr %6) #10
  %9 = load ptr, ptr @pg_data, align 8
  %10 = call i32 @stat(ptr noundef %9, ptr noundef %6) #10
  %11 = icmp ne i32 %10, 0
  br i1 %11, label %12, label %26

12:                                               ; preds = %1
  %13 = call ptr @__errno_location() #13
  %14 = load i32, ptr %13, align 4
  %15 = icmp eq i32 %14, 2
  br i1 %15, label %16, label %19

16:                                               ; preds = %12
  %17 = load ptr, ptr @progname, align 8
  %18 = load ptr, ptr @pg_data, align 8
  call void (ptr, ...) @write_stderr(ptr noundef @.str.115, ptr noundef %17, ptr noundef %18)
  br label %22

19:                                               ; preds = %12
  %20 = load ptr, ptr @progname, align 8
  %21 = load ptr, ptr @pg_data, align 8
  call void (ptr, ...) @write_stderr(ptr noundef @.str.116, ptr noundef %20, ptr noundef %21)
  br label %22

22:                                               ; preds = %19, %16
  %23 = load i8, ptr %3, align 1, !range !6, !noundef !7
  %24 = trunc i8 %23 to i1
  %25 = select i1 %24, i32 4, i32 1
  call void @exit(i32 noundef %25) #12
  unreachable

26:                                               ; preds = %1
  %27 = call i32 @stat(ptr noundef @version_file, ptr noundef %6) #10
  %28 = icmp ne i32 %27, 0
  br i1 %28, label %29, label %39

29:                                               ; preds = %26
  %30 = call ptr @__errno_location() #13
  %31 = load i32, ptr %30, align 4
  %32 = icmp eq i32 %31, 2
  br i1 %32, label %33, label %39

33:                                               ; preds = %29
  %34 = load ptr, ptr @progname, align 8
  %35 = load ptr, ptr @pg_data, align 8
  call void (ptr, ...) @write_stderr(ptr noundef @.str.117, ptr noundef %34, ptr noundef %35)
  %36 = load i8, ptr %3, align 1, !range !6, !noundef !7
  %37 = trunc i8 %36 to i1
  %38 = select i1 %37, i32 4, i32 1
  call void @exit(i32 noundef %38) #12
  unreachable

39:                                               ; preds = %29, %26
  %40 = call noalias ptr @fopen(ptr noundef @pid_file, ptr noundef @.str.99)
  store ptr %40, ptr %4, align 8
  %41 = load ptr, ptr %4, align 8
  %42 = icmp eq ptr %41, null
  br i1 %42, label %43, label %50

43:                                               ; preds = %39
  %44 = call ptr @__errno_location() #13
  %45 = load i32, ptr %44, align 4
  %46 = icmp eq i32 %45, 2
  br i1 %46, label %47, label %48

47:                                               ; preds = %43
  store i32 0, ptr %2, align 4
  store i32 1, ptr %7, align 4
  br label %71

48:                                               ; preds = %43
  %49 = load ptr, ptr @progname, align 8
  call void (ptr, ...) @write_stderr(ptr noundef @.str.118, ptr noundef %49, ptr noundef @pid_file)
  call void @exit(i32 noundef 1) #12
  unreachable

50:                                               ; preds = %39
  %51 = load ptr, ptr %4, align 8
  %52 = call i32 (ptr, ptr, ...) @__isoc99_fscanf(ptr noundef %51, ptr noundef @.str.119, ptr noundef %5)
  %53 = icmp ne i32 %52, 1
  br i1 %53, label %54, label %67

54:                                               ; preds = %50
  %55 = load ptr, ptr %4, align 8
  %56 = call i64 @ftell(ptr noundef %55)
  %57 = icmp eq i64 %56, 0
  br i1 %57, label %58, label %64

58:                                               ; preds = %54
  %59 = load ptr, ptr %4, align 8
  %60 = call i32 @feof(ptr noundef %59) #10
  %61 = icmp ne i32 %60, 0
  br i1 %61, label %62, label %64

62:                                               ; preds = %58
  %63 = load ptr, ptr @progname, align 8
  call void (ptr, ...) @write_stderr(ptr noundef @.str.120, ptr noundef %63, ptr noundef @pid_file)
  br label %66

64:                                               ; preds = %58, %54
  %65 = load ptr, ptr @progname, align 8
  call void (ptr, ...) @write_stderr(ptr noundef @.str.121, ptr noundef %65, ptr noundef @pid_file)
  br label %66

66:                                               ; preds = %64, %62
  call void @exit(i32 noundef 1) #12
  unreachable

67:                                               ; preds = %50
  %68 = load ptr, ptr %4, align 8
  %69 = call i32 @fclose(ptr noundef %68)
  %70 = load i32, ptr %5, align 4
  store i32 %70, ptr %2, align 4
  store i32 1, ptr %7, align 4
  br label %71

71:                                               ; preds = %67, %47
  call void @llvm.lifetime.end.p0(i64 144, ptr %6) #10
  call void @llvm.lifetime.end.p0(i64 4, ptr %5) #10
  call void @llvm.lifetime.end.p0(i64 8, ptr %4) #10
  %72 = load i32, ptr %2, align 4
  ret i32 %72
}