; Function Attrs: nounwind uwtable
define internal fastcc i32 @get_pgpid(i1 noundef zeroext %0) unnamed_addr #5 {
  %2 = alloca i32, align 4
  %3 = alloca %struct.stat, align 8
  call void @llvm.lifetime.start.p0(i64 4, ptr nonnull %2) #17
  call void @llvm.lifetime.start.p0(i64 144, ptr nonnull %3) #17
  %4 = load ptr, ptr @pg_data, align 8
  %5 = call i32 @stat(ptr noundef %4, ptr noundef nonnull %3) #17
  %.not = icmp eq i32 %5, 0
  br i1 %.not, label %13, label %6

6:                                                ; preds = %1
  %7 = tail call ptr @__errno_location() #21
  %8 = load i32, ptr %7, align 4
  %9 = icmp eq i32 %8, 2
  %10 = load ptr, ptr @progname, align 8
  %11 = load ptr, ptr @pg_data, align 8
  %.str.115..str.116 = select i1 %9, ptr @.str.115, ptr @.str.116
  tail call void (ptr, ...) @write_stderr(ptr noundef nonnull %.str.115..str.116, ptr noundef %10, ptr noundef %11)
  %12 = select i1 %0, i32 4, i32 1
  tail call void @exit(i32 noundef %12) #19
  unreachable

13:                                               ; preds = %1
  %14 = call i32 @stat(ptr noundef nonnull @version_file, ptr noundef nonnull %3) #17
  %.not8 = icmp eq i32 %14, 0
  br i1 %.not8, label %23, label %15

15:                                               ; preds = %13
  %16 = tail call ptr @__errno_location() #21
  %17 = load i32, ptr %16, align 4
  %18 = icmp eq i32 %17, 2
  br i1 %18, label %19, label %23

19:                                               ; preds = %15
  %20 = load ptr, ptr @progname, align 8
  %21 = load ptr, ptr @pg_data, align 8
  tail call void (ptr, ...) @write_stderr(ptr noundef nonnull @.str.117, ptr noundef %20, ptr noundef %21)
  %22 = select i1 %0, i32 4, i32 1
  tail call void @exit(i32 noundef %22) #19
  unreachable

23:                                               ; preds = %15, %13
  %24 = tail call noalias ptr @fopen(ptr noundef nonnull @pid_file, ptr noundef nonnull @.str.99)
  %25 = icmp eq ptr %24, null
  br i1 %25, label %26, label %32

26:                                               ; preds = %23
  %27 = tail call ptr @__errno_location() #21
  %28 = load i32, ptr %27, align 4
  %29 = icmp eq i32 %28, 2
  br i1 %29, label %45, label %30

30:                                               ; preds = %26
  %31 = load ptr, ptr @progname, align 8
  tail call void (ptr, ...) @write_stderr(ptr noundef nonnull @.str.118, ptr noundef %31, ptr noundef nonnull @pid_file)
  tail call void @exit(i32 noundef 1) #20
  unreachable

32:                                               ; preds = %23
  %33 = call i32 (ptr, ptr, ...) @__isoc99_fscanf(ptr noundef nonnull %24, ptr noundef nonnull @.str.119, ptr noundef nonnull %2) #17
  %.not9 = icmp eq i32 %33, 1
  br i1 %.not9, label %42, label %34

34:                                               ; preds = %32
  %35 = call i64 @ftell(ptr noundef nonnull %24)
  %36 = icmp eq i64 %35, 0
  br i1 %36, label %37, label %39

37:                                               ; preds = %34
  %38 = call i32 @feof(ptr noundef nonnull %24) #17
  %.not10 = icmp eq i32 %38, 0
  br i1 %.not10, label %39, label %40

39:                                               ; preds = %37, %34
  br label %40

40:                                               ; preds = %37, %39
  %.str.121.sink = phi ptr [ @.str.121, %39 ], [ @.str.120, %37 ]
  %41 = load ptr, ptr @progname, align 8
  call void (ptr, ...) @write_stderr(ptr noundef nonnull %.str.121.sink, ptr noundef %41, ptr noundef nonnull @pid_file)
  call void @exit(i32 noundef 1) #20
  unreachable

42:                                               ; preds = %32
  %43 = call i32 @fclose(ptr noundef nonnull %24)
  %44 = load i32, ptr %2, align 4
  br label %45

45:                                               ; preds = %26, %42
  %.0 = phi i32 [ %44, %42 ], [ 0, %26 ]
  call void @llvm.lifetime.end.p0(i64 144, ptr nonnull %3) #17
  call void @llvm.lifetime.end.p0(i64 4, ptr nonnull %2) #17
  ret i32 %.0
}